target datalayout = "e-m:e-p270:32:32-p271:32:32-p272:64:64-i64:64-i128:128-f80:128-n8:16:32:64-S128"
target triple = "x86_64-pc-linux-gnu"

%struct.Exnode_s = type { i32, i32, i32, ptr, %union.anon.1, %union.Exdata_u, i32 }
%union.anon.1 = type { ptr }
%union.Exdata_u = type { %struct.anon.5 }
%struct.anon.5 = type { ptr, ptr, ptr, ptr }
%struct.anon.3 = type { ptr, ptr, ptr }

; Function Attrs: nounwind uwtable
define ptr @exnoncast(ptr noundef %0) #0 {
  %2 = alloca ptr, align 8
  store ptr %0, ptr %2, align 8
  br label %3

3:                                                ; preds = %18, %1
  %4 = load ptr, ptr %2, align 8
  %5 = icmp ne ptr %4, null
  br i1 %5, label %6, label %16

6:                                                ; preds = %3
  %7 = load ptr, ptr %2, align 8
  %8 = getelementptr inbounds %struct.Exnode_s, ptr %7, i32 0, i32 1
  %9 = load i32, ptr %8, align 4
  %10 = icmp sge i32 %9, 308
  br i1 %10, label %11, label %16

11:                                               ; preds = %6
  %12 = load ptr, ptr %2, align 8
  %13 = getelementptr inbounds %struct.Exnode_s, ptr %12, i32 0, i32 1
  %14 = load i32, ptr %13, align 4
  %15 = icmp sle i32 %14, 321
  br label %16

16:                                               ; preds = %11, %6, %3
  %17 = phi i1 [ false, %6 ], [ false, %3 ], [ %15, %11 ]
  br i1 %17, label %18, label %23

18:                                               ; preds = %16
  %19 = load ptr, ptr %2, align 8
  %20 = getelementptr inbounds %struct.Exnode_s, ptr %19, i32 0, i32 5
  %21 = getelementptr inbounds %struct.anon.3, ptr %20, i32 0, i32 0
  %22 = load ptr, ptr %21, align 8
  store ptr %22, ptr %2, align 8
  br label %3

23:                                               ; preds = %16
  %24 = load ptr, ptr %2, align 8
  ret ptr %24
}