; Function Attrs: nofree norecurse nosync nounwind memory(read, inaccessiblemem: none) uwtable
define ptr @exnoncast(ptr noundef readonly %0) local_unnamed_addr #4 {
  %.not6 = icmp eq ptr %0, null
  br i1 %.not6, label %.critedge, label %.lr.ph

.lr.ph:                                           ; preds = %1, %5
  %.07 = phi ptr [ %7, %5 ], [ %0, %1 ]
  %2 = getelementptr inbounds nuw i8, ptr %.07, i64 4
  %3 = load i32, ptr %2, align 4
  %4 = add i32 %3, -308
  %or.cond = icmp ult i32 %4, 14
  br i1 %or.cond, label %5, label %.critedge

5:                                                ; preds = %.lr.ph
  %6 = getelementptr inbounds nuw i8, ptr %.07, i64 32
  %7 = load ptr, ptr %6, align 8
  %.not = icmp eq ptr %7, null
  br i1 %.not, label %.critedge, label %.lr.ph

.critedge:                                        ; preds = %5, %.lr.ph, %1
  %.0.lcssa = phi ptr [ null, %1 ], [ %.07, %.lr.ph ], [ null, %5 ]
  ret ptr %.0.lcssa
}